target datalayout = "e-m:e-p270:32:32-p271:32:32-p272:64:64-i64:64-i128:128-f80:128-n8:16:32:64-S128"
target triple = "x86_64-pc-linux-gnu"

%struct.mbedtls_mpi = type { i32, i64, ptr }

; Function Attrs: mustprogress uwtable
define internal noundef i32 @_ZL10mpi_selectP11mbedtls_mpiPKS_mm(ptr noundef %0, ptr noundef %1, i64 noundef %2, i64 noundef %3) #1 {
  %5 = alloca i32, align 4
  %6 = alloca ptr, align 8
  %7 = alloca ptr, align 8
  %8 = alloca i64, align 8
  %9 = alloca i64, align 8
  %10 = alloca i32, align 4
  %11 = alloca i64, align 8
  %12 = alloca i32, align 4
  store ptr %0, ptr %6, align 8, !tbaa !3
  store ptr %1, ptr %7, align 8, !tbaa !3
  store i64 %2, ptr %8, align 8, !tbaa !16
  store i64 %3, ptr %9, align 8, !tbaa !16
  call void @llvm.lifetime.start.p0(i64 4, ptr %10) #10
  store i32 -110, ptr %10, align 4, !tbaa !19
  call void @llvm.lifetime.start.p0(i64 8, ptr %11) #10
  store i64 0, ptr %11, align 8, !tbaa !16
  br label %13

13:                                               ; preds = %34, %4
  %14 = load i64, ptr %11, align 8, !tbaa !16
  %15 = load i64, ptr %8, align 8, !tbaa !16
  %16 = icmp ult i64 %14, %15
  br i1 %16, label %18, label %17

17:                                               ; preds = %13
  store i32 2, ptr %12, align 4
  br label %37

18:                                               ; preds = %13
  br label %19

19:                                               ; preds = %18
  %20 = load ptr, ptr %6, align 8, !tbaa !3
  %21 = load ptr, ptr %7, align 8, !tbaa !3
  %22 = load i64, ptr %11, align 8, !tbaa !16
  %23 = getelementptr inbounds nuw %struct.mbedtls_mpi, ptr %21, i64 %22
  %24 = load i64, ptr %11, align 8, !tbaa !16
  %25 = load i64, ptr %9, align 8, !tbaa !16
  %26 = call noundef i32 @_Z23mbedtls_ct_size_bool_eqmm(i64 noundef %24, i64 noundef %25)
  %27 = trunc i32 %26 to i8
  %28 = call i32 @mbedtls_mpi_safe_cond_assign(ptr noundef %20, ptr noundef %23, i8 noundef zeroext %27)
  store i32 %28, ptr %10, align 4, !tbaa !19
  %29 = icmp ne i32 %28, 0
  br i1 %29, label %30, label %31

30:                                               ; preds = %19
  store i32 7, ptr %12, align 4
  br label %37

31:                                               ; preds = %19
  br label %32

32:                                               ; preds = %31
  br label %33

33:                                               ; preds = %32
  br label %34

34:                                               ; preds = %33
  %35 = load i64, ptr %11, align 8, !tbaa !16
  %36 = add i64 %35, 1
  store i64 %36, ptr %11, align 8, !tbaa !16
  br label %13, !llvm.loop !83

37:                                               ; preds = %30, %17
  call void @llvm.lifetime.end.p0(i64 8, ptr %11) #10
  %38 = load i32, ptr %12, align 4
  switch i32 %38, label %42 [
    i32 2, label %39
    i32 7, label %40
  ]

39:                                               ; preds = %37
  br label %40

40:                                               ; preds = %39, %37
  %41 = load i32, ptr %10, align 4, !tbaa !19
  store i32 %41, ptr %5, align 4
  store i32 1, ptr %12, align 4
  br label %42

42:                                               ; preds = %40, %37
  call void @llvm.lifetime.end.p0(i64 4, ptr %10) #10
  %43 = load i32, ptr %5, align 4
  ret i32 %43
}