; Function Attrs: mustprogress uwtable
define internal fastcc noundef i32 @_ZL10mpi_selectP11mbedtls_mpiPKS_mm(ptr noundef nonnull %0, ptr noundef nonnull %1, i64 noundef range(i64 2, 65) %2, i64 noundef %3) unnamed_addr #1 {
  br label %5

5:                                                ; preds = %5, %4
  %.01015 = phi i64 [ 0, %4 ], [ %10, %5 ]
  %6 = getelementptr inbounds nuw %struct.mbedtls_mpi, ptr %1, i64 %.01015
  %7 = tail call noundef i32 @_Z23mbedtls_ct_size_bool_eqmm(i64 noundef %.01015, i64 noundef %3)
  %8 = trunc i32 %7 to i8
  %9 = tail call i32 @mbedtls_mpi_safe_cond_assign(ptr noundef nonnull %0, ptr noundef nonnull %6, i8 noundef zeroext %8)
  %.not = icmp ne i32 %9, 0
  %10 = add nuw nsw i64 %.01015, 1
  %exitcond.not = icmp eq i64 %10, %2
  %or.cond = select i1 %.not, i1 true, i1 %exitcond.not
  br i1 %or.cond, label %11, label %5, !llvm.loop !72

11:                                               ; preds = %5
  ret i32 %9
}